; Function Attrs: nounwind uwtable
define hidden range(i32 0, 2) i32 @EVP_tls_cbc_record_digest_supported(ptr noundef %0) local_unnamed_addr #4 {
  %2 = tail call i32 @EVP_MD_type(ptr noundef %0) #9
  switch i32 %2, label %3 [
    i32 64, label %4
    i32 672, label %4
    i32 673, label %4
  ]

3:                                                ; preds = %1
  br label %4

4:                                                ; preds = %1, %1, %1, %3
  %.0 = phi i32 [ 0, %3 ], [ 1, %1 ], [ 1, %1 ], [ 1, %1 ]
  ret i32 %.0
}